(dp1
S'WQ'
p2
(lp3
F10
a(dp4
g2
F0
sS'NEG'
p5
F0
sS'DEM'
p6
F1
sS'JJ'
p7
F0
sS'RP'
p8
F0
sS'NN'
p9
F1
sS'VAUX'
p10
F0
sS'PRP'
p11
F3
sS'RB'
p12
F0
sS'NST'
p13
F0
sS'NNP'
p14
F0
sS'INTF'
p15
F0
sS'CC'
p16
F1
sS'XC'
p17
F0
sS'VM'
p18
F4
sS'START'
p19
F0
sS'SYM'
p20
F0
sS'QC'
p21
F0
sS'INJ'
p22
F0
sS'QF'
p23
F0
sS'PSP'
p24
F0
sS'QO'
p25
F0
sasg5
(lp26
F43
a(dp27
g2
F0
sg5
F0
sg6
F0
sg7
F2
sg8
F0
sg9
F3
sg10
F2
sg11
F2
sg12
F0
sg13
F0
sg14
F0
sg15
F0
sg16
F1
sg17
F1
sg18
F31
sg19
F0
sg20
F0
sg21
F0
sg22
F0
sg23
F0
sg24
F1
sg25
F0
sasg6
(lp28
F132
a(dp29
g2
F0
sg5
F0
sg6
F0
sg7
F8
sg8
F0
sg9
F113
sg10
F0
sg11
F3
sg12
F0
sg13
F0
sg14
F2
sg15
F0
sg16
F0
sg17
F3
sg18
F0
sg19
F0
sg20
F0
sg21
F1
sg22
F0
sg23
F1
sg24
F0
sg25
F1
sasg7
(lp30
F664
a(dp31
g2
F0
sg5
F5
sg6
F0
sg7
F27
sg8
F5
sg9
F428
sg10
F0
sg11
F2
sg12
F2
sg13
F3
sg14
F6
sg15
F1
sg16
F19
sg17
F23
sg18
F137
sg19
F0
sg20
F0
sg21
F4
sg22
F0
sg23
F2
sg24
F0
sg25
F0
sasg8
(lp32
F131
a(dp33
g2
F0
sg5
F4
sg6
F3
sg7
F19
sg8
F4
sg9
F30
sg10
F1
sg11
F6
sg12
F2
sg13
F1
sg14
F1
sg15
F2
sg16
F0
sg17
F1
sg18
F46
sg19
F0
sg20
F0
sg21
F3
sg22
F0
sg23
F4
sg24
F4
sg25
F0
sasg9
(lp34
F1942
a(dp35
g2
F2
sg5
F18
sg6
F10
sg7
F164
sg8
F45
sg9
F170
sg10
F0
sg11
F46
sg12
F13
sg13
F4
sg14
F21
sg15
F6
sg16
F72
sg17
F23
sg18
F461
sg19
F0
sg20
F1
sg21
F11
sg22
F0
sg23
F16
sg24
F858
sg25
F1
sasg10
(lp36
F239
a(dp37
g2
F0
sg5
F3
sg6
F2
sg7
F9
sg8
F1
sg9
F67
sg10
F108
sg11
F16
sg12
F1
sg13
F0
sg14
F0
sg15
F1
sg16
F23
sg17
F1
sg18
F1
sg19
F0
sg20
F0
sg21
F1
sg22
F0
sg23
F1
sg24
F4
sg25
F0
sasg11
(lp38
F453
a(dp39
g2
F2
sg5
F4
sg6
F17
sg7
F56
sg8
F22
sg9
F173
sg10
F2
sg11
F45
sg12
F7
sg13
F10
sg14
F7
sg15
F4
sg16
F4
sg17
F15
sg18
F35
sg19
F0
sg20
F0
sg21
F13
sg22
F0
sg23
F11
sg24
F26
sg25
F0
sasg12
(lp40
F49
a(dp41
g2
F0
sg5
F0
sg6
F1
sg7
F6
sg8
F1
sg9
F14
sg10
F0
sg11
F7
sg12
F0
sg13
F0
sg14
F0
sg15
F0
sg16
F0
sg17
F5
sg18
F7
sg19
F0
sg20
F0
sg21
F1
sg22
F0
sg23
F4
sg24
F3
sg25
F0
sasg13
(lp42
F64
a(dp43
g2
F0
sg5
F2
sg6
F3
sg7
F1
sg8
F8
sg9
F9
sg10
F0
sg11
F4
sg12
F1
sg13
F0
sg14
F2
sg15
F1
sg16
F0
sg17
F3
sg18
F15
sg19
F0
sg20
F0
sg21
F3
sg22
F0
sg23
F0
sg24
F12
sg25
F0
sasg14
(lp44
F199
a(dp45
g2
F0
sg5
F0
sg6
F0
sg7
F8
sg8
F2
sg9
F21
sg10
F0
sg11
F8
sg12
F0
sg13
F0
sg14
F3
sg15
F4
sg16
F15
sg17
F8
sg18
F7
sg19
F0
sg20
F0
sg21
F1
sg22
F0
sg23
F2
sg24
F120
sg25
F0
sasg15
(lp46
F42
a(dp47
g2
F0
sg5
F0
sg6
F0
sg7
F34
sg8
F2
sg9
F1
sg10
F0
sg11
F0
sg12
F0
sg13
F0
sg14
F0
sg15
F0
sg16
F0
sg17
F0
sg18
F0
sg19
F0
sg20
F0
sg21
F0
sg22
F0
sg23
F4
sg24
F0
sg25
F1
sasg16
(lp48
F209
a(dp49
g2
F1
sg5
F0
sg6
F6
sg7
F42
sg8
F5
sg9
F80
sg10
F0
sg11
F30
sg12
F7
sg13
F2
sg14
F7
sg15
F0
sg16
F0
sg17
F13
sg18
F5
sg19
F0
sg20
F0
sg21
F2
sg22
F0
sg23
F4
sg24
F1
sg25
F4
sasg17
(lp50
F349
a(dp51
g2
F0
sg5
F0
sg6
F0
sg7
F3
sg8
F0
sg9
F130
sg10
F0
sg11
F3
sg12
F0
sg13
F2
sg14
F106
sg15
F0
sg16
F1
sg17
F101
sg18
F0
sg19
F0
sg20
F0
sg21
F2
sg22
F1
sg23
F0
sg24
F0
sg25
F0
sasg18
(lp52
F554
a(dp53
g2
F0
sg5
F2
sg6
F3
sg7
F23
sg8
F6
sg9
F43
sg10
F334
sg11
F34
sg12
F2
sg13
F1
sg14
F0
sg15
F2
sg16
F29
sg17
F9
sg18
F2
sg19
F0
sg20
F0
sg21
F4
sg22
F0
sg23
F4
sg24
F56
sg25
F0
sasg19
(lp54
F900
a(dp55
g2
F3
sg5
F1
sg6
F71
sg7
F92
sg8
F0
sg9
F291
sg10
F0
sg11
F176
sg12
F9
sg13
F7
sg14
F50
sg15
F2
sg16
F38
sg17
F109
sg18
F15
sg19
F0
sg20
F1
sg21
F10
sg22
F1
sg23
F19
sg24
F3
sg25
F2
sasg20
(lp56
F2
a(dp57
g2
F0
sg5
F0
sg6
F0
sg7
F0
sg8
F0
sg9
F1
sg10
F0
sg11
F0
sg12
F0
sg13
F0
sg14
F1
sg15
F0
sg16
F0
sg17
F0
sg18
F0
sg19
F0
sg20
F0
sg21
F0
sg22
F0
sg23
F0
sg24
F0
sg25
F0
sasg21
(lp58
F102
a(dp59
g2
F0
sg5
F0
sg6
F0
sg7
F28
sg8
F5
sg9
F55
sg10
F0
sg11
F1
sg12
F0
sg13
F1
sg14
F0
sg15
F1
sg16
F0
sg17
F2
sg18
F3
sg19
F0
sg20
F0
sg21
F1
sg22
F0
sg23
F0
sg24
F4
sg25
F1
sasg22
(lp60
F2
a(dp61
g2
F0
sg5
F0
sg6
F0
sg7
F0
sg8
F1
sg9
F0
sg10
F0
sg11
F1
sg12
F0
sg13
F0
sg14
F0
sg15
F0
sg16
F0
sg17
F0
sg18
F0
sg19
F0
sg20
F0
sg21
F0
sg22
F0
sg23
F0
sg24
F0
sg25
F0
sasg23
(lp62
F101
a(dp63
g2
F0
sg5
F2
sg6
F0
sg7
F16
sg8
F3
sg9
F57
sg10
F0
sg11
F0
sg12
F1
sg13
F1
sg14
F1
sg15
F0
sg16
F1
sg17
F9
sg18
F7
sg19
F0
sg20
F0
sg21
F1
sg22
F0
sg23
F1
sg24
F1
sg25
F0
sasg24
(lp64
F1208
a(dp65
g2
F2
sg5
F2
sg6
F15
sg7
F143
sg8
F31
sg9
F523
sg10
F0
sg11
F68
sg12
F4
sg13
F34
sg14
F10
sg15
F19
sg16
F7
sg17
F25
sg18
F105
sg19
F0
sg20
F0
sg21
F46
sg22
F0
sg23
F30
sg24
F132
sg25
F12
sasg25
(lp66
F22
a(dp67
g2
F0
sg5
F0
sg6
F0
sg7
F4
sg8
F0
sg9
F15
sg10
F0
sg11
F0
sg12
F0
sg13
F2
sg14
F0
sg15
F0
sg16
F0
sg17
F1
sg18
F0
sg19
F0
sg20
F0
sg21
F0
sg22
F0
sg23
F0
sg24
F0
sg25
F0
sas.