(dp1
S'JJ'
p2
F685
sS'NEG'
p3
F43
sS'DEM'
p4
F132
sS'WQ'
p5
F10
sS'RP'
p6
F141
sS'NN'
p7
F2225
sS'CC'
p8
F211
sS'PRP'
p9
F455
sS'RB'
p10
F49
sS'NST'
p11
F68
sS'NNP'
p12
F217
sS'INTF'
p13
F43
sS'VAUX'
p14
F447
sS'XC'
p15
F352
sS'VM'
p16
F881
sS'START'
p17
F900
sS'SYM'
p18
F2
sS'QC'
p19
F104
sS'INJ'
p20
F2
sS'QF'
p21
F103
sS'PSP'
p22
F1225
sS'QO'
p23
F22
s.