(dp1
S'WQ'
p2
(dp3
g2
F0.0081967213114754103
sS'NEG'
p4
F0.0081967213114754103
sS'DEM'
p5
F0.090163934426229525
sS'JJ'
p6
F0.0081967213114754103
sS'RP'
p7
F0.0081967213114754103
sS'NN'
p8
F0.090163934426229525
sS'VAUX'
p9
F0.0081967213114754103
sS'PRP'
p10
F0.25409836065573771
sS'RB'
p11
F0.0081967213114754103
sS'NST'
p12
F0.0081967213114754103
sS'NNP'
p13
F0.0081967213114754103
sS'INTF'
p14
F0.0081967213114754103
sS'CC'
p15
F0.090163934426229525
sS'XC'
p16
F0.0081967213114754103
sS'VM'
p17
F0.33606557377049179
sS'START'
p18
F0.0081967213114754103
sS'SYM'
p19
F0.0081967213114754103
sS'QC'
p20
F0.0081967213114754103
sS'INJ'
p21
F0.0081967213114754103
sS'QF'
p22
F0.0081967213114754103
sS'PSP'
p23
F0.0081967213114754103
sS'QO'
p24
F0.0081967213114754103
ssg4
(dp25
g2
F0.0022123893805309734
sg4
F0.0022123893805309734
sg5
F0.0022123893805309734
sg6
F0.046460176991150438
sg7
F0.0022123893805309734
sg8
F0.068584070796460173
sg9
F0.046460176991150438
sg10
F0.046460176991150438
sg11
F0.0022123893805309734
sg12
F0.0022123893805309734
sg13
F0.0022123893805309734
sg14
F0.0022123893805309734
sg15
F0.024336283185840708
sg16
F0.024336283185840708
sg17
F0.68805309734513276
sg18
F0.0022123893805309734
sg19
F0.0022123893805309734
sg20
F0.0022123893805309734
sg21
F0.0022123893805309734
sg22
F0.0022123893805309734
sg23
F0.024336283185840708
sg24
F0.0022123893805309734
ssg5
(dp26
g2
F0.000745156482861401
sg4
F0.000745156482861401
sg5
F0.000745156482861401
sg6
F0.060357675111773472
sg7
F0.000745156482861401
sg8
F0.84277198211624449
sg9
F0.000745156482861401
sg10
F0.023099850968703432
sg11
F0.000745156482861401
sg12
F0.000745156482861401
sg13
F0.01564828614008942
sg14
F0.000745156482861401
sg15
F0.000745156482861401
sg16
F0.023099850968703432
sg17
F0.000745156482861401
sg18
F0.000745156482861401
sg19
F0.000745156482861401
sg20
F0.008196721311475412
sg21
F0.000745156482861401
sg22
F0.008196721311475412
sg23
F0.000745156482861401
sg24
F0.008196721311475412
ssg6
(dp27
g2
F0.00014551804423748544
sg4
F0.0074214202561117566
sg5
F0.00014551804423748544
sg6
F0.039435389988358556
sg7
F0.0074214202561117566
sg8
F0.62296274738067514
sg9
F0.00014551804423748544
sg10
F0.0030558789289871942
sg11
F0.0030558789289871942
sg12
F0.0045110593713620483
sg13
F0.0088766006984866107
sg14
F0.0016006984866123401
sg15
F0.02779394644935972
sg16
F0.033614668218859139
sg17
F0.19950523864959252
sg18
F0.00014551804423748544
sg19
F0.00014551804423748544
sg20
F0.0059662398137369024
sg21
F0.00014551804423748544
sg22
F0.0030558789289871942
sg23
F0.00014551804423748544
sg24
F0.00014551804423748544
ssg7
(dp28
g2
F0.00069832402234636885
sg4
F0.028631284916201118
sg5
F0.021648044692737432
sg6
F0.13337988826815644
sg7
F0.028631284916201118
sg8
F0.21019553072625702
sg9
F0.0076815642458100573
sg10
F0.042597765363128495
sg11
F0.014664804469273745
sg12
F0.0076815642458100573
sg13
F0.0076815642458100573
sg14
F0.014664804469273745
sg15
F0.00069832402234636885
sg16
F0.0076815642458100573
sg17
F0.32192737430167601
sg18
F0.00069832402234636885
sg19
F0.00069832402234636885
sg20
F0.021648044692737432
sg21
F0.00069832402234636885
sg22
F0.028631284916201118
sg23
F0.028631284916201118
sg24
F0.00069832402234636885
ssg8
(dp29
g2
F0.00094288793103448291
sg4
F0.0081267959770114952
sg5
F0.0045348419540229886
sg6
F0.073679956896551727
sg7
F0.020249640804597704
sg8
F0.076373922413793108
sg9
F4.4899425287356328e-05
sg10
F0.020698635057471267
sg11
F0.0058818247126436784
sg12
F0.0018408764367816091
sg13
F0.0094737787356321858
sg14
F0.0027388649425287358
sg15
F0.032372485632183909
sg16
F0.010371767241379311
sg17
F0.20703125000000003
sg18
F4.4899425287356328e-05
sg19
F0.00049389367816091959
sg20
F0.0049838362068965521
sg21
F4.4899425287356328e-05
sg22
F0.007228807471264369
sg23
F0.38528196839080464
sg24
F0.00049389367816091959
ssg9
(dp30
g2
F0.00022261798753339272
sg4
F0.0069011576135351738
sg5
F0.004674977738201247
sg6
F0.020258236865538737
sg7
F0.0024487978628673201
sg8
F0.14937666963490648
sg9
F0.24065004452359751
sg10
F0.035841495992876227
sg11
F0.0024487978628673201
sg12
F0.00022261798753339272
sg13
F0.00022261798753339272
sg14
F0.0024487978628673201
sg15
F0.051424755120213717
sg16
F0.0024487978628673201
sg17
F0.0024487978628673201
sg18
F0.00022261798753339272
sg19
F0.00022261798753339272
sg20
F0.0024487978628673201
sg21
F0.00022261798753339272
sg22
F0.0024487978628673201
sg23
F0.0091273374888691007
sg24
F0.00022261798753339272
ssg10
(dp31
g2
F0.0045931758530183726
sg4
F0.0089676290463692031
sg5
F0.037401574803149609
sg6
F0.12270341207349082
sg7
F0.048337707786526692
sg8
F0.37860892388451445
sg9
F0.0045931758530183726
sg10
F0.098643919510061254
sg11
F0.01552930883639545
sg12
F0.022090988626421698
sg13
F0.01552930883639545
sg14
F0.0089676290463692031
sg15
F0.0089676290463692031
sg16
F0.033027121609798774
sg17
F0.076771653543307089
sg18
F0.00021872265966754156
sg19
F0.00021872265966754156
sg20
F0.028652668416447945
sg21
F0.00021872265966754156
sg22
F0.024278215223097113
sg23
F0.057086614173228349
sg24
F0.00021872265966754156
ssg11
(dp32
g2
F0.001953125
sg4
F0.001953125
sg5
F0.021484375
sg6
F0.11914062499999999
sg7
F0.021484375
sg8
F0.275390625
sg9
F0.001953125
sg10
F0.13867187499999997
sg11
F0.001953125
sg12
F0.001953125
sg13
F0.001953125
sg14
F0.001953125
sg15
F0.001953125
sg16
F0.099609374999999986
sg17
F0.13867187499999997
sg18
F0.001953125
sg19
F0.001953125
sg20
F0.021484375
sg21
F0.001953125
sg22
F0.080078124999999986
sg23
F0.060546875
sg24
F0.001953125
ssg12
(dp33
g2
F0.0014245014245014246
sg4
F0.029914529914529916
sg5
F0.044159544159544158
sg6
F0.015669515669515671
sg7
F0.11538461538461538
sg8
F0.12962962962962962
sg9
F0.0014245014245014246
sg10
F0.058404558404558396
sg11
F0.015669515669515671
sg12
F0.0014245014245014246
sg13
F0.029914529914529916
sg14
F0.015669515669515671
sg15
F0.0014245014245014246
sg16
F0.044159544159544158
sg17
F0.21509971509971509
sg18
F0.0014245014245014246
sg19
F0.0014245014245014246
sg20
F0.044159544159544158
sg21
F0.0014245014245014246
sg22
F0.0014245014245014246
sg23
F0.17236467236467234
sg24
F0.0014245014245014246
ssg13
(dp34
g2
F0.00045620437956204383
sg4
F0.00045620437956204383
sg5
F0.00045620437956204383
sg6
F0.036952554744525551
sg7
F0.0095802919708029202
sg8
F0.096259124087591255
sg9
F0.00045620437956204383
sg10
F0.036952554744525551
sg11
F0.00045620437956204383
sg12
F0.00045620437956204383
sg13
F0.014142335766423359
sg14
F0.018704379562043794
sg15
F0.068886861313868619
sg16
F0.036952554744525551
sg17
F0.032390510948905112
sg18
F0.00045620437956204383
sg19
F0.00045620437956204383
sg20
F0.0050182481751824826
sg21
F0.00045620437956204383
sg22
F0.0095802919708029202
sg23
F0.54790145985401462
sg24
F0.00045620437956204383
ssg14
(dp35
g2
F0.0022123893805309734
sg4
F0.0022123893805309734
sg5
F0.0022123893805309734
sg6
F0.75442477876106195
sg7
F0.046460176991150438
sg8
F0.024336283185840708
sg9
F0.0022123893805309734
sg10
F0.0022123893805309734
sg11
F0.0022123893805309734
sg12
F0.0022123893805309734
sg13
F0.0022123893805309734
sg14
F0.0022123893805309734
sg15
F0.0022123893805309734
sg16
F0.0022123893805309734
sg17
F0.0022123893805309734
sg18
F0.0022123893805309734
sg19
F0.0022123893805309734
sg20
F0.0022123893805309734
sg21
F0.0022123893805309734
sg22
F0.0907079646017699
sg23
F0.0022123893805309734
sg24
F0.024336283185840708
ssg15
(dp36
g2
F0.0051594746716697943
sg4
F0.00046904315196998129
sg5
F0.028611632270168854
sg6
F0.19746716697936212
sg7
F0.023921200750469041
sg8
F0.37570356472795496
sg9
F0.00046904315196998129
sg10
F0.14118198874296436
sg11
F0.03330206378986867
sg12
F0.0098499061913696062
sg13
F0.03330206378986867
sg14
F0.00046904315196998129
sg15
F0.00046904315196998129
sg16
F0.061444652908067547
sg17
F0.023921200750469041
sg18
F0.00046904315196998129
sg19
F0.00046904315196998129
sg20
F0.0098499061913696062
sg21
F0.00046904315196998129
sg22
F0.019230769230769232
sg23
F0.0051594746716697943
sg24
F0.019230769230769232
ssg16
(dp37
g2
F0.00028232636928289106
sg4
F0.00028232636928289106
sg5
F0.00028232636928289106
sg6
F0.008752117447769622
sg7
F0.00028232636928289106
sg8
F0.36730660643704122
sg9
F0.00028232636928289106
sg10
F0.008752117447769622
sg11
F0.00028232636928289106
sg12
F0.0059288537549407119
sg13
F0.29954827780914739
sg14
F0.00028232636928289106
sg15
F0.0031055900621118015
sg16
F0.28543195934500282
sg17
F0.00028232636928289106
sg18
F0.00028232636928289106
sg19
F0.00028232636928289106
sg20
F0.0059288537549407119
sg21
F0.0031055900621118015
sg22
F0.00028232636928289106
sg23
F0.00028232636928289106
sg24
F0.00028232636928289106
ssg17
(dp38
g2
F0.00011322463768115942
sg4
F0.002377717391304348
sg5
F0.003509963768115942
sg6
F0.026154891304347828
sg7
F0.0069067028985507241
sg8
F0.048799818840579712
sg9
F0.3782835144927536
sg10
F0.03860960144927536
sg11
F0.002377717391304348
sg12
F0.0012454710144927537
sg13
F0.00011322463768115942
sg14
F0.002377717391304348
sg15
F0.032948369565217392
sg16
F0.010303442028985506
sg17
F0.002377717391304348
sg18
F0.00011322463768115942
sg19
F0.00011322463768115942
sg20
F0.0046422101449275352
sg21
F0.00011322463768115942
sg22
F0.0046422101449275352
sg23
F0.063519021739130432
sg24
F0.00011322463768115942
ssg18
(dp39
g2
F0.0034360452227887384
sg4
F0.0012192418532476169
sg5
F0.078807359787186865
sg6
F0.10208379516736864
sg7
F0.00011084016847705608
sg8
F0.32265573043671025
sg9
F0.00011084016847705608
sg10
F0.19518953668809574
sg11
F0.010086455331412102
sg12
F0.0078696519618709805
sg13
F0.055530924407005099
sg14
F0.0023276435380181777
sg15
F0.042230104189758366
sg16
F0.12092662380846818
sg17
F0.016736865440035466
sg18
F0.00011084016847705608
sg19
F0.0012192418532476169
sg20
F0.011194857016182664
sg21
F0.0012192418532476169
sg22
F0.021170472179117713
sg23
F0.0034360452227887384
sg24
F0.0023276435380181777
ssg19
(dp40
g2
F0.023809523809523808
sg4
F0.023809523809523808
sg5
F0.023809523809523808
sg6
F0.023809523809523808
sg7
F0.023809523809523808
sg8
F0.26190476190476192
sg9
F0.023809523809523808
sg10
F0.023809523809523808
sg11
F0.023809523809523808
sg12
F0.023809523809523808
sg13
F0.26190476190476192
sg14
F0.023809523809523808
sg15
F0.023809523809523808
sg16
F0.023809523809523808
sg17
F0.023809523809523808
sg18
F0.023809523809523808
sg19
F0.023809523809523808
sg20
F0.023809523809523808
sg21
F0.023809523809523808
sg22
F0.023809523809523808
sg23
F0.023809523809523808
sg24
F0.023809523809523808
ssg20
(dp41
g2
F0.00094161958568738237
sg4
F0.00094161958568738237
sg5
F0.00094161958568738237
sg6
F0.26459510357815441
sg7
F0.048022598870056492
sg8
F0.51883239171374762
sg9
F0.00094161958568738237
sg10
F0.010357815442561206
sg11
F0.00094161958568738237
sg12
F0.010357815442561206
sg13
F0.00094161958568738237
sg14
F0.010357815442561206
sg15
F0.00094161958568738237
sg16
F0.01977401129943503
sg17
F0.029190207156308851
sg18
F0.00094161958568738237
sg19
F0.00094161958568738237
sg20
F0.010357815442561206
sg21
F0.00094161958568738237
sg22
F0.00094161958568738237
sg23
F0.038606403013182668
sg24
F0.010357815442561206
ssg21
(dp42
g2
F0.023809523809523808
sg4
F0.023809523809523808
sg5
F0.023809523809523808
sg6
F0.023809523809523808
sg7
F0.26190476190476192
sg8
F0.023809523809523808
sg9
F0.023809523809523808
sg10
F0.26190476190476192
sg11
F0.023809523809523808
sg12
F0.023809523809523808
sg13
F0.023809523809523808
sg14
F0.023809523809523808
sg15
F0.023809523809523808
sg16
F0.023809523809523808
sg17
F0.023809523809523808
sg18
F0.023809523809523808
sg19
F0.023809523809523808
sg20
F0.023809523809523808
sg21
F0.023809523809523808
sg22
F0.023809523809523808
sg23
F0.023809523809523808
sg24
F0.023809523809523808
ssg22
(dp43
g2
F0.00095057034220532319
sg4
F0.019961977186311788
sg5
F0.00095057034220532319
sg6
F0.15304182509505704
sg7
F0.029467680608365018
sg8
F0.54277566539923949
sg9
F0.00095057034220532319
sg10
F0.00095057034220532319
sg11
F0.010456273764258556
sg12
F0.010456273764258556
sg13
F0.010456273764258556
sg14
F0.00095057034220532319
sg15
F0.010456273764258556
sg16
F0.086501901140684401
sg17
F0.067490494296577941
sg18
F0.00095057034220532319
sg19
F0.00095057034220532319
sg20
F0.010456273764258556
sg21
F0.00095057034220532319
sg22
F0.010456273764258556
sg23
F0.010456273764258556
sg24
F0.00095057034220532319
ssg23
(dp44
g2
F0.001711212516297262
sg4
F0.001711212516297262
sg5
F0.012304432855280312
sg6
F0.11660691003911342
sg7
F0.025342242503259452
sg8
F0.42625488917861798
sg9
F8.148631029986962e-05
sg10
F0.055492177314211202
sg11
F0.0033409387222946541
sg12
F0.027786831812255542
sg13
F0.008230117340286832
sg14
F0.015563885267275099
sg15
F0.0057855280312907424
sg16
F0.020453063885267277
sg17
F0.08564211212516297
sg18
F8.148631029986962e-05
sg19
F8.148631029986962e-05
sg20
F0.037565189048239897
sg21
F8.148631029986962e-05
sg22
F0.024527379400260757
sg23
F0.10764341590612776
sg24
F0.0098598435462842228
ssg24
(dp45
g2
F0.0041322314049586778
sg4
F0.0041322314049586778
sg5
F0.0041322314049586778
sg6
F0.16942148760330578
sg7
F0.0041322314049586778
sg8
F0.62396694214876036
sg9
F0.0041322314049586778
sg10
F0.0041322314049586778
sg11
F0.0041322314049586778
sg12
F0.086776859504132234
sg13
F0.0041322314049586778
sg14
F0.0041322314049586778
sg15
F0.0041322314049586778
sg16
F0.045454545454545463
sg17
F0.0041322314049586778
sg18
F0.0041322314049586778
sg19
F0.0041322314049586778
sg20
F0.0041322314049586778
sg21
F0.0041322314049586778
sg22
F0.0041322314049586778
sg23
F0.0041322314049586778
sg24
F0.0041322314049586778
ss.